target datalayout = "e-m:e-p270:32:32-p271:32:32-p272:64:64-i64:64-i128:128-f80:128-n8:16:32:64-S128"
target triple = "x86_64-pc-linux-gnu"

; Function Attrs: mustprogress uwtable
define signext i8 @udbg_knownIssue_print(ptr noundef %0) #1 {
  %2 = alloca i8, align 1
  %3 = alloca ptr, align 8
  %4 = alloca ptr, align 8
  %5 = alloca i32, align 4
  store ptr %0, ptr %3, align 8, !tbaa !22
  call void @llvm.lifetime.start.p0(i64 8, ptr %4) #13
  %6 = load ptr, ptr %3, align 8, !tbaa !22
  store ptr %6, ptr %4, align 8, !tbaa !45
  %7 = load ptr, ptr %4, align 8, !tbaa !45
  %8 = icmp eq ptr %7, null
  br i1 %8, label %9, label %10

9:                                                ; preds = %1
  store i8 0, ptr %2, align 1
  store i32 1, ptr %5, align 4
  br label %13

10:                                               ; preds = %1
  %11 = load ptr, ptr %4, align 8, !tbaa !45
  %12 = call noundef signext i8 @_ZN11KnownIssues5printEv(ptr noundef nonnull align 8 dereferenceable(48) %11)
  store i8 1, ptr %2, align 1
  store i32 1, ptr %5, align 4
  br label %13

13:                                               ; preds = %10, %9
  call void @llvm.lifetime.end.p0(i64 8, ptr %4) #13
  %14 = load i8, ptr %2, align 1
  ret i8 %14
}