; Function Attrs: mustprogress uwtable
define signext range(i8 0, 2) i8 @udbg_knownIssue_print(ptr noundef %0) local_unnamed_addr #1 {
  %2 = icmp eq ptr %0, null
  br i1 %2, label %5, label %3

3:                                                ; preds = %1
  %4 = tail call noundef signext i8 @_ZN11KnownIssues5printEv(ptr noundef nonnull align 8 dereferenceable(48) %0)
  br label %5

5:                                                ; preds = %1, %3
  %.0 = phi i8 [ 1, %3 ], [ 0, %1 ]
  ret i8 %.0
}